target datalayout = "e-m:e-p270:32:32-p271:32:32-p272:64:64-i64:64-i128:128-f80:128-n8:16:32:64-S128"
target triple = "x86_64-pc-linux-gnu"

%struct.lua_TValue = type { %union.Value, [1 x i32], i32 }
%union.Value = type { ptr }
%struct.LuaTable = type { i8, i8, i8, i8, i8, i8, i8, i8, i32, %union.anon.2, ptr, ptr, ptr, ptr }
%union.anon.2 = type { i32 }
%struct.lua_State = type { i8, i8, i8, i8, i8, i8, i8, ptr, ptr, ptr, ptr, ptr, ptr, ptr, ptr, i32, i32, i16, i16, i32, ptr, ptr, ptr, ptr, ptr }
%struct.global_State = type { %struct.stringtable, ptr, ptr, i8, i8, ptr, ptr, ptr, i64, i64, i32, i32, i32, [40 x ptr], [40 x ptr], ptr, ptr, ptr, [256 x i64], ptr, %struct.UpVal, [11 x ptr], [11 x ptr], [21 x ptr], %struct.lua_TValue, %struct.lua_TValue, i32, ptr, i64, [4 x i64], %struct.lua_Callbacks, %struct.lua_ExecutionCallbacks, [128 x ptr], [128 x ptr], [128 x ptr], %struct.GCStats }
%struct.stringtable = type { ptr, i32, i32 }
%struct.UpVal = type { i8, i8, i8, i8, ptr, %union.anon.3 }
%union.anon.3 = type { %struct.anon.4 }
%struct.anon.4 = type { ptr, ptr, ptr }
%struct.lua_Callbacks = type { ptr, ptr, ptr, ptr, ptr, ptr, ptr, ptr, ptr, ptr }
%struct.lua_ExecutionCallbacks = type { ptr, ptr, ptr, ptr, ptr, ptr, ptr }
%struct.GCStats = type { [32 x i32], i32, i32, i64, i64, i64, double, double, double }

@luaO_nilobject_ = external hidden global %struct.lua_TValue, align 8
@.str = private unnamed_addr constant [40 x i8] c"'__index' chain too long; possible loop\00", align 1

; Function Attrs: mustprogress uwtable
define internal noundef ptr @_ZL9callTMresP9lua_StateP10lua_TValuePKS1_S4_S4_(ptr noundef %0, ptr noundef %1, ptr noundef %2, ptr noundef %3, ptr noundef %4) #0 {
  %6 = alloca ptr, align 8
  %7 = alloca ptr, align 8
  %8 = alloca ptr, align 8
  %9 = alloca ptr, align 8
  %10 = alloca ptr, align 8
  %11 = alloca i64, align 8
  %12 = alloca ptr, align 8
  %13 = alloca ptr, align 8
  %14 = alloca ptr, align 8
  %15 = alloca ptr, align 8
  %16 = alloca ptr, align 8
  %17 = alloca ptr, align 8
  %18 = alloca ptr, align 8
  %19 = alloca ptr, align 8
  store ptr %0, ptr %6, align 8, !tbaa !15
  store ptr %1, ptr %7, align 8, !tbaa !4
  store ptr %2, ptr %8, align 8, !tbaa !4
  store ptr %3, ptr %9, align 8, !tbaa !4
  store ptr %4, ptr %10, align 8, !tbaa !4
  call void @llvm.lifetime.start.p0(i64 8, ptr %11) #11
  %20 = load ptr, ptr %7, align 8, !tbaa !4
  %21 = load ptr, ptr %6, align 8, !tbaa !15
  %22 = getelementptr inbounds nuw %struct.lua_State, ptr %21, i32 0, i32 12
  %23 = load ptr, ptr %22, align 8, !tbaa !41
  %24 = ptrtoint ptr %20 to i64
  %25 = ptrtoint ptr %23 to i64
  %26 = sub i64 %24, %25
  store i64 %26, ptr %11, align 8, !tbaa !42
  call void @llvm.lifetime.start.p0(i64 8, ptr %12) #11
  %27 = load ptr, ptr %8, align 8, !tbaa !4
  store ptr %27, ptr %12, align 8, !tbaa !4
  call void @llvm.lifetime.start.p0(i64 8, ptr %13) #11
  %28 = load ptr, ptr %6, align 8, !tbaa !15
  %29 = getelementptr inbounds nuw %struct.lua_State, ptr %28, i32 0, i32 7
  %30 = load ptr, ptr %29, align 8, !tbaa !44
  store ptr %30, ptr %13, align 8, !tbaa !4
  %31 = load ptr, ptr %12, align 8, !tbaa !4
  %32 = load ptr, ptr %13, align 8, !tbaa !4
  call void @llvm.memcpy.p0.p0.i64(ptr align 8 %32, ptr align 8 %31, i64 16, i1 false), !tbaa.struct !38
  call void @llvm.lifetime.end.p0(i64 8, ptr %13) #11
  call void @llvm.lifetime.end.p0(i64 8, ptr %12) #11
  call void @llvm.lifetime.start.p0(i64 8, ptr %14) #11
  %33 = load ptr, ptr %9, align 8, !tbaa !4
  store ptr %33, ptr %14, align 8, !tbaa !4
  call void @llvm.lifetime.start.p0(i64 8, ptr %15) #11
  %34 = load ptr, ptr %6, align 8, !tbaa !15
  %35 = getelementptr inbounds nuw %struct.lua_State, ptr %34, i32 0, i32 7
  %36 = load ptr, ptr %35, align 8, !tbaa !44
  %37 = getelementptr inbounds %struct.lua_TValue, ptr %36, i64 1
  store ptr %37, ptr %15, align 8, !tbaa !4
  %38 = load ptr, ptr %14, align 8, !tbaa !4
  %39 = load ptr, ptr %15, align 8, !tbaa !4
  call void @llvm.memcpy.p0.p0.i64(ptr align 8 %39, ptr align 8 %38, i64 16, i1 false), !tbaa.struct !38
  call void @llvm.lifetime.end.p0(i64 8, ptr %15) #11
  call void @llvm.lifetime.end.p0(i64 8, ptr %14) #11
  call void @llvm.lifetime.start.p0(i64 8, ptr %16) #11
  %40 = load ptr, ptr %10, align 8, !tbaa !4
  store ptr %40, ptr %16, align 8, !tbaa !4
  call void @llvm.lifetime.start.p0(i64 8, ptr %17) #11
  %41 = load ptr, ptr %6, align 8, !tbaa !15
  %42 = getelementptr inbounds nuw %struct.lua_State, ptr %41, i32 0, i32 7
  %43 = load ptr, ptr %42, align 8, !tbaa !44
  %44 = getelementptr inbounds %struct.lua_TValue, ptr %43, i64 2
  store ptr %44, ptr %17, align 8, !tbaa !4
  %45 = load ptr, ptr %16, align 8, !tbaa !4
  %46 = load ptr, ptr %17, align 8, !tbaa !4
  call void @llvm.memcpy.p0.p0.i64(ptr align 8 %46, ptr align 8 %45, i64 16, i1 false), !tbaa.struct !38
  call void @llvm.lifetime.end.p0(i64 8, ptr %17) #11
  call void @llvm.lifetime.end.p0(i64 8, ptr %16) #11
  %47 = load ptr, ptr %6, align 8, !tbaa !15
  %48 = getelementptr inbounds nuw %struct.lua_State, ptr %47, i32 0, i32 11
  %49 = load ptr, ptr %48, align 8, !tbaa !45
  %50 = load ptr, ptr %6, align 8, !tbaa !15
  %51 = getelementptr inbounds nuw %struct.lua_State, ptr %50, i32 0, i32 7
  %52 = load ptr, ptr %51, align 8, !tbaa !44
  %53 = ptrtoint ptr %49 to i64
  %54 = ptrtoint ptr %52 to i64
  %55 = sub i64 %53, %54
  %56 = icmp sle i64 %55, 48
  br i1 %56, label %57, label %59

57:                                               ; preds = %5
  %58 = load ptr, ptr %6, align 8, !tbaa !15
  call void @_Z14luaD_growstackP9lua_Statei(ptr noundef %58, i32 noundef 3)
  br label %60

59:                                               ; preds = %5
  br label %60

60:                                               ; preds = %59, %57
  %61 = load ptr, ptr %6, align 8, !tbaa !15
  %62 = getelementptr inbounds nuw %struct.lua_State, ptr %61, i32 0, i32 7
  %63 = load ptr, ptr %62, align 8, !tbaa !44
  %64 = getelementptr inbounds %struct.lua_TValue, ptr %63, i64 3
  store ptr %64, ptr %62, align 8, !tbaa !44
  %65 = load ptr, ptr %6, align 8, !tbaa !15
  %66 = load ptr, ptr %6, align 8, !tbaa !15
  %67 = getelementptr inbounds nuw %struct.lua_State, ptr %66, i32 0, i32 7
  %68 = load ptr, ptr %67, align 8, !tbaa !44
  %69 = getelementptr inbounds %struct.lua_TValue, ptr %68, i64 -3
  call void @_Z9luaD_callP9lua_StateP10lua_TValuei(ptr noundef %65, ptr noundef %69, i32 noundef 1)
  %70 = load ptr, ptr %6, align 8, !tbaa !15
  %71 = getelementptr inbounds nuw %struct.lua_State, ptr %70, i32 0, i32 12
  %72 = load ptr, ptr %71, align 8, !tbaa !41
  %73 = load i64, ptr %11, align 8, !tbaa !42
  %74 = getelementptr inbounds i8, ptr %72, i64 %73
  store ptr %74, ptr %7, align 8, !tbaa !4
  %75 = load ptr, ptr %6, align 8, !tbaa !15
  %76 = getelementptr inbounds nuw %struct.lua_State, ptr %75, i32 0, i32 7
  %77 = load ptr, ptr %76, align 8, !tbaa !44
  %78 = getelementptr inbounds %struct.lua_TValue, ptr %77, i32 -1
  store ptr %78, ptr %76, align 8, !tbaa !44
  call void @llvm.lifetime.start.p0(i64 8, ptr %18) #11
  %79 = load ptr, ptr %6, align 8, !tbaa !15
  %80 = getelementptr inbounds nuw %struct.lua_State, ptr %79, i32 0, i32 7
  %81 = load ptr, ptr %80, align 8, !tbaa !44
  store ptr %81, ptr %18, align 8, !tbaa !4
  call void @llvm.lifetime.start.p0(i64 8, ptr %19) #11
  %82 = load ptr, ptr %7, align 8, !tbaa !4
  store ptr %82, ptr %19, align 8, !tbaa !4
  %83 = load ptr, ptr %18, align 8, !tbaa !4
  %84 = load ptr, ptr %19, align 8, !tbaa !4
  call void @llvm.memcpy.p0.p0.i64(ptr align 8 %84, ptr align 8 %83, i64 16, i1 false), !tbaa.struct !38
  call void @llvm.lifetime.end.p0(i64 8, ptr %19) #11
  call void @llvm.lifetime.end.p0(i64 8, ptr %18) #11
  %85 = load ptr, ptr %7, align 8, !tbaa !4
  call void @llvm.lifetime.end.p0(i64 8, ptr %11) #11
  ret ptr %85
}

; Function Attrs: mustprogress uwtable
define hidden void @_Z13luaV_gettableP9lua_StatePK10lua_TValuePS1_S4_(ptr noundef %0, ptr noundef %1, ptr noundef %2, ptr noundef %3) #0 {
  %5 = alloca ptr, align 8
  %6 = alloca ptr, align 8
  %7 = alloca ptr, align 8
  %8 = alloca ptr, align 8
  %9 = alloca i32, align 4
  %10 = alloca ptr, align 8
  %11 = alloca ptr, align 8
  %12 = alloca ptr, align 8
  %13 = alloca ptr, align 8
  %14 = alloca ptr, align 8
  %15 = alloca i32, align 4
  store ptr %0, ptr %5, align 8, !tbaa !15
  store ptr %1, ptr %6, align 8, !tbaa !4
  store ptr %2, ptr %7, align 8, !tbaa !4
  store ptr %3, ptr %8, align 8, !tbaa !4
  call void @llvm.lifetime.start.p0(i64 4, ptr %9) #11
  store i32 0, ptr %9, align 4, !tbaa !19
  br label %16

16:                                               ; preds = %120, %4
  %17 = load i32, ptr %9, align 4, !tbaa !19
  %18 = icmp slt i32 %17, 100
  br i1 %18, label %19, label %123

19:                                               ; preds = %16
  call void @llvm.lifetime.start.p0(i64 8, ptr %10) #11
  %20 = load ptr, ptr %6, align 8, !tbaa !4
  %21 = getelementptr inbounds nuw %struct.lua_TValue, ptr %20, i32 0, i32 2
  %22 = load i32, ptr %21, align 4, !tbaa !9
  %23 = icmp eq i32 %22, 6
  br i1 %23, label %24, label %91

24:                                               ; preds = %19
  call void @llvm.lifetime.start.p0(i64 8, ptr %11) #11
  %25 = load ptr, ptr %6, align 8, !tbaa !4
  %26 = getelementptr inbounds nuw %struct.lua_TValue, ptr %25, i32 0, i32 0
  %27 = load ptr, ptr %26, align 8, !tbaa !12
  store ptr %27, ptr %11, align 8, !tbaa !20
  call void @llvm.lifetime.start.p0(i64 8, ptr %12) #11
  %28 = load ptr, ptr %11, align 8, !tbaa !20
  %29 = load ptr, ptr %7, align 8, !tbaa !4
  %30 = call noundef ptr @_Z8luaH_getP8LuaTablePK10lua_TValue(ptr noundef %28, ptr noundef %29)
  store ptr %30, ptr %12, align 8, !tbaa !4
  %31 = load ptr, ptr %12, align 8, !tbaa !4
  %32 = icmp ne ptr %31, @luaO_nilobject_
  br i1 %32, label %33, label %45

33:                                               ; preds = %24
  %34 = load ptr, ptr %12, align 8, !tbaa !4
  %35 = load ptr, ptr %11, align 8, !tbaa !20
  %36 = getelementptr inbounds nuw %struct.LuaTable, ptr %35, i32 0, i32 12
  %37 = load ptr, ptr %36, align 8, !tbaa !22
  %38 = ptrtoint ptr %34 to i64
  %39 = ptrtoint ptr %37 to i64
  %40 = sub i64 %38, %39
  %41 = sdiv exact i64 %40, 32
  %42 = trunc i64 %41 to i32
  %43 = load ptr, ptr %5, align 8, !tbaa !15
  %44 = getelementptr inbounds nuw %struct.lua_State, ptr %43, i32 0, i32 19
  store i32 %42, ptr %44, align 4, !tbaa !26
  br label %45

45:                                               ; preds = %33, %24
  %46 = load ptr, ptr %12, align 8, !tbaa !4
  %47 = getelementptr inbounds nuw %struct.lua_TValue, ptr %46, i32 0, i32 2
  %48 = load i32, ptr %47, align 4, !tbaa !9
  %49 = icmp eq i32 %48, 0
  br i1 %49, label %50, label %82

50:                                               ; preds = %45
  %51 = load ptr, ptr %11, align 8, !tbaa !20
  %52 = getelementptr inbounds nuw %struct.LuaTable, ptr %51, i32 0, i32 10
  %53 = load ptr, ptr %52, align 8, !tbaa !34
  %54 = icmp eq ptr %53, null
  br i1 %54, label %55, label %56

55:                                               ; preds = %50
  br label %79

56:                                               ; preds = %50
  %57 = load ptr, ptr %11, align 8, !tbaa !20
  %58 = getelementptr inbounds nuw %struct.LuaTable, ptr %57, i32 0, i32 10
  %59 = load ptr, ptr %58, align 8, !tbaa !34
  %60 = getelementptr inbounds nuw %struct.LuaTable, ptr %59, i32 0, i32 3
  %61 = load i8, ptr %60, align 1, !tbaa !35
  %62 = zext i8 %61 to i32
  %63 = and i32 %62, 1
  %64 = icmp ne i32 %63, 0
  br i1 %64, label %65, label %66

65:                                               ; preds = %56
  br label %77

66:                                               ; preds = %56
  %67 = load ptr, ptr %11, align 8, !tbaa !20
  %68 = getelementptr inbounds nuw %struct.LuaTable, ptr %67, i32 0, i32 10
  %69 = load ptr, ptr %68, align 8, !tbaa !34
  %70 = load ptr, ptr %5, align 8, !tbaa !15
  %71 = getelementptr inbounds nuw %struct.lua_State, ptr %70, i32 0, i32 9
  %72 = load ptr, ptr %71, align 8, !tbaa !36
  %73 = getelementptr inbounds nuw %struct.global_State, ptr %72, i32 0, i32 23
  %74 = getelementptr inbounds nuw [21 x ptr], ptr %73, i64 0, i64 0
  %75 = load ptr, ptr %74, align 8, !tbaa !37
  %76 = call noundef ptr @_Z10luaT_gettmP8LuaTable3TMSP7TString(ptr noundef %69, i32 noundef 0, ptr noundef %75)
  br label %77

77:                                               ; preds = %66, %65
  %78 = phi ptr [ null, %65 ], [ %76, %66 ]
  br label %79

79:                                               ; preds = %77, %55
  %80 = phi ptr [ null, %55 ], [ %78, %77 ]
  store ptr %80, ptr %10, align 8, !tbaa !4
  %81 = icmp eq ptr %80, null
  br i1 %81, label %82, label %87

82:                                               ; preds = %79, %45
  call void @llvm.lifetime.start.p0(i64 8, ptr %13) #11
  %83 = load ptr, ptr %12, align 8, !tbaa !4
  store ptr %83, ptr %13, align 8, !tbaa !4
  call void @llvm.lifetime.start.p0(i64 8, ptr %14) #11
  %84 = load ptr, ptr %8, align 8, !tbaa !4
  store ptr %84, ptr %14, align 8, !tbaa !4
  %85 = load ptr, ptr %13, align 8, !tbaa !4
  %86 = load ptr, ptr %14, align 8, !tbaa !4
  call void @llvm.memcpy.p0.p0.i64(ptr align 8 %86, ptr align 8 %85, i64 16, i1 false), !tbaa.struct !38
  call void @llvm.lifetime.end.p0(i64 8, ptr %14) #11
  call void @llvm.lifetime.end.p0(i64 8, ptr %13) #11
  store i32 1, ptr %15, align 4
  br label %88

87:                                               ; preds = %79
  store i32 0, ptr %15, align 4
  br label %88

88:                                               ; preds = %87, %82
  call void @llvm.lifetime.end.p0(i64 8, ptr %12) #11
  call void @llvm.lifetime.end.p0(i64 8, ptr %11) #11
  %89 = load i32, ptr %15, align 4
  switch i32 %89, label %117 [
    i32 0, label %90
  ]

90:                                               ; preds = %88
  br label %103

91:                                               ; preds = %19
  %92 = load ptr, ptr %5, align 8, !tbaa !15
  %93 = load ptr, ptr %6, align 8, !tbaa !4
  %94 = call noundef ptr @_Z15luaT_gettmbyobjP9lua_StatePK10lua_TValue3TMS(ptr noundef %92, ptr noundef %93, i32 noundef 0)
  store ptr %94, ptr %10, align 8, !tbaa !4
  %95 = getelementptr inbounds nuw %struct.lua_TValue, ptr %94, i32 0, i32 2
  %96 = load i32, ptr %95, align 4, !tbaa !9
  %97 = icmp eq i32 %96, 0
  br i1 %97, label %98, label %102

98:                                               ; preds = %91
  %99 = load ptr, ptr %5, align 8, !tbaa !15
  %100 = load ptr, ptr %6, align 8, !tbaa !4
  %101 = load ptr, ptr %7, align 8, !tbaa !4
  call void @_Z15luaG_indexerrorP9lua_StatePK10lua_TValueS3_(ptr noundef %99, ptr noundef %100, ptr noundef %101) #12
  unreachable

102:                                              ; preds = %91
  br label %103

103:                                              ; preds = %102, %90
  %104 = load ptr, ptr %10, align 8, !tbaa !4
  %105 = getelementptr inbounds nuw %struct.lua_TValue, ptr %104, i32 0, i32 2
  %106 = load i32, ptr %105, align 4, !tbaa !9
  %107 = icmp eq i32 %106, 7
  br i1 %107, label %108, label %115

108:                                              ; preds = %103
  %109 = load ptr, ptr %5, align 8, !tbaa !15
  %110 = load ptr, ptr %8, align 8, !tbaa !4
  %111 = load ptr, ptr %10, align 8, !tbaa !4
  %112 = load ptr, ptr %6, align 8, !tbaa !4
  %113 = load ptr, ptr %7, align 8, !tbaa !4
  %114 = call noundef ptr @_ZL9callTMresP9lua_StateP10lua_TValuePKS1_S4_S4_(ptr noundef %109, ptr noundef %110, ptr noundef %111, ptr noundef %112, ptr noundef %113)
  store i32 1, ptr %15, align 4
  br label %117

115:                                              ; preds = %103
  %116 = load ptr, ptr %10, align 8, !tbaa !4
  store ptr %116, ptr %6, align 8, !tbaa !4
  store i32 0, ptr %15, align 4
  br label %117

117:                                              ; preds = %115, %108, %88
  call void @llvm.lifetime.end.p0(i64 8, ptr %10) #11
  %118 = load i32, ptr %15, align 4
  switch i32 %118, label %125 [
    i32 0, label %119
  ]

119:                                              ; preds = %117
  br label %120

120:                                              ; preds = %119
  %121 = load i32, ptr %9, align 4, !tbaa !19
  %122 = add nsw i32 %121, 1
  store i32 %122, ptr %9, align 4, !tbaa !19
  br label %16, !llvm.loop !39

123:                                              ; preds = %16
  %124 = load ptr, ptr %5, align 8, !tbaa !15
  call void (ptr, ptr, ...) @_Z14luaG_runerrorLP9lua_StatePKcz(ptr noundef %124, ptr noundef @.str) #12
  unreachable

125:                                              ; preds = %117
  call void @llvm.lifetime.end.p0(i64 4, ptr %9) #11
  ret void
}