; Function Attrs: mustprogress uwtable
define hidden void @_Z13luaV_gettableP9lua_StatePK10lua_TValuePS1_S4_(ptr noundef %0, ptr noundef %1, ptr noundef %2, ptr noundef %3) local_unnamed_addr #0 {
  %5 = getelementptr inbounds nuw i8, ptr %0, i64 84
  %6 = getelementptr inbounds nuw i8, ptr %0, i64 24
  %.phi.trans.insert = getelementptr inbounds nuw i8, ptr %1, i64 12
  %.pre = load i32, ptr %.phi.trans.insert, align 4, !tbaa !4
  br label %9

7:                                                ; preds = %.thread44
  %8 = add nuw nsw i32 %.03655, 1
  %exitcond.not = icmp eq i32 %8, 100
  br i1 %exitcond.not, label %75, label %9, !llvm.loop !12

9:                                                ; preds = %4, %7
  %10 = phi i32 [ %.pre, %4 ], [ %47, %7 ]
  %.03456 = phi ptr [ %1, %4 ], [ %.4, %7 ]
  %.03655 = phi i32 [ 0, %4 ], [ %8, %7 ]
  %11 = icmp eq i32 %10, 6
  br i1 %11, label %12, label %41

12:                                               ; preds = %9
  %13 = load ptr, ptr %.03456, align 8, !tbaa !9
  %14 = tail call noundef ptr @_Z8luaH_getP8LuaTablePK10lua_TValue(ptr noundef %13, ptr noundef %2)
  %.not = icmp eq ptr %14, @luaO_nilobject_
  br i1 %.not, label %23, label %15

15:                                               ; preds = %12
  %16 = getelementptr inbounds nuw i8, ptr %13, i64 32
  %17 = load ptr, ptr %16, align 8, !tbaa !14
  %18 = ptrtoint ptr %14 to i64
  %19 = ptrtoint ptr %17 to i64
  %20 = sub i64 %18, %19
  %21 = lshr exact i64 %20, 5
  %22 = trunc i64 %21 to i32
  store i32 %22, ptr %5, align 4, !tbaa !21
  br label %23

23:                                               ; preds = %15, %12
  %24 = getelementptr inbounds nuw i8, ptr %14, i64 12
  %25 = load i32, ptr %24, align 4, !tbaa !4
  %26 = icmp eq i32 %25, 0
  br i1 %26, label %27, label %.thread

27:                                               ; preds = %23
  %28 = getelementptr inbounds nuw i8, ptr %13, i64 16
  %29 = load ptr, ptr %28, align 8, !tbaa !29
  %30 = icmp eq ptr %29, null
  br i1 %30, label %.thread, label %31

31:                                               ; preds = %27
  %32 = getelementptr inbounds nuw i8, ptr %29, i64 3
  %33 = load i8, ptr %32, align 1, !tbaa !30
  %34 = and i8 %33, 1
  %.not43 = icmp eq i8 %34, 0
  br i1 %.not43, label %35, label %.thread

35:                                               ; preds = %31
  %36 = load ptr, ptr %6, align 8, !tbaa !31
  %37 = getelementptr inbounds nuw i8, ptr %36, i64 3032
  %38 = load ptr, ptr %37, align 8, !tbaa !32
  %39 = tail call noundef ptr @_Z10luaT_gettmP8LuaTable3TMSP7TString(ptr noundef nonnull %29, i32 noundef 0, ptr noundef %38)
  %40 = icmp eq ptr %39, null
  br i1 %40, label %.thread, label %..thread44_crit_edge

..thread44_crit_edge:                             ; preds = %35
  %.phi.trans.insert61 = getelementptr inbounds nuw i8, ptr %39, i64 12
  %.pre62 = load i32, ptr %.phi.trans.insert61, align 4, !tbaa !4
  br label %.thread44

.thread:                                          ; preds = %31, %27, %23, %35
  tail call void @llvm.memcpy.p0.p0.i64(ptr noundef nonnull align 8 dereferenceable(16) %3, ptr noundef nonnull align 8 dereferenceable(16) %14, i64 16, i1 false), !tbaa.struct !33
  br label %76

41:                                               ; preds = %9
  %42 = tail call noundef ptr @_Z15luaT_gettmbyobjP9lua_StatePK10lua_TValue3TMS(ptr noundef %0, ptr noundef nonnull %.03456, i32 noundef 0)
  %43 = getelementptr inbounds nuw i8, ptr %42, i64 12
  %44 = load i32, ptr %43, align 4, !tbaa !4
  %45 = icmp eq i32 %44, 0
  br i1 %45, label %46, label %.thread44

46:                                               ; preds = %41
  tail call void @_Z15luaG_indexerrorP9lua_StatePK10lua_TValueS3_(ptr noundef %0, ptr noundef nonnull %.03456, ptr noundef %2) #12
  unreachable

.thread44:                                        ; preds = %..thread44_crit_edge, %41
  %47 = phi i32 [ %44, %41 ], [ %.pre62, %..thread44_crit_edge ]
  %.4 = phi ptr [ %42, %41 ], [ %39, %..thread44_crit_edge ]
  %48 = icmp eq i32 %47, 7
  br i1 %48, label %49, label %7

49:                                               ; preds = %.thread44
  %50 = getelementptr inbounds nuw i8, ptr %0, i64 48
  %51 = load ptr, ptr %50, align 8, !tbaa !35
  %52 = getelementptr inbounds nuw i8, ptr %0, i64 8
  %53 = load ptr, ptr %52, align 8, !tbaa !36
  tail call void @llvm.memcpy.p0.p0.i64(ptr noundef nonnull align 8 dereferenceable(16) %53, ptr noundef nonnull readonly align 8 dereferenceable(16) %.4, i64 16, i1 false), !tbaa.struct !33
  %54 = load ptr, ptr %52, align 8, !tbaa !36
  %55 = getelementptr inbounds nuw i8, ptr %54, i64 16
  tail call void @llvm.memcpy.p0.p0.i64(ptr noundef nonnull align 8 dereferenceable(16) %55, ptr noundef nonnull readonly align 8 dereferenceable(16) %.03456, i64 16, i1 false), !tbaa.struct !33
  %56 = load ptr, ptr %52, align 8, !tbaa !36
  %57 = getelementptr inbounds nuw i8, ptr %56, i64 32
  tail call void @llvm.memcpy.p0.p0.i64(ptr noundef nonnull align 8 dereferenceable(16) %57, ptr noundef nonnull readonly align 8 dereferenceable(16) %2, i64 16, i1 false), !tbaa.struct !33
  %58 = getelementptr inbounds nuw i8, ptr %0, i64 40
  %59 = load ptr, ptr %58, align 8, !tbaa !37
  %60 = load ptr, ptr %52, align 8, !tbaa !36
  %61 = ptrtoint ptr %59 to i64
  %62 = ptrtoint ptr %60 to i64
  %63 = sub i64 %61, %62
  %64 = icmp slt i64 %63, 49
  br i1 %64, label %65, label %_ZL9callTMresP9lua_StateP10lua_TValuePKS1_S4_S4_.exit

65:                                               ; preds = %49
  tail call void @_Z14luaD_growstackP9lua_Statei(ptr noundef nonnull %0, i32 noundef 3)
  %.pre.i = load ptr, ptr %52, align 8, !tbaa !36
  br label %_ZL9callTMresP9lua_StateP10lua_TValuePKS1_S4_S4_.exit

_ZL9callTMresP9lua_StateP10lua_TValuePKS1_S4_S4_.exit: ; preds = %49, %65
  %66 = phi ptr [ %60, %49 ], [ %.pre.i, %65 ]
  %67 = ptrtoint ptr %3 to i64
  %68 = ptrtoint ptr %51 to i64
  %69 = sub i64 %67, %68
  %70 = getelementptr inbounds nuw i8, ptr %66, i64 48
  store ptr %70, ptr %52, align 8, !tbaa !36
  tail call void @_Z9luaD_callP9lua_StateP10lua_TValuei(ptr noundef nonnull %0, ptr noundef %66, i32 noundef 1)
  %71 = load ptr, ptr %50, align 8, !tbaa !35
  %72 = getelementptr inbounds i8, ptr %71, i64 %69
  %73 = load ptr, ptr %52, align 8, !tbaa !36
  %74 = getelementptr inbounds i8, ptr %73, i64 -16
  store ptr %74, ptr %52, align 8, !tbaa !36
  tail call void @llvm.memcpy.p0.p0.i64(ptr noundef nonnull align 8 dereferenceable(16) %72, ptr noundef nonnull align 8 dereferenceable(16) %74, i64 16, i1 false), !tbaa.struct !33
  br label %76

75:                                               ; preds = %7
  tail call void (ptr, ptr, ...) @_Z14luaG_runerrorLP9lua_StatePKcz(ptr noundef %0, ptr noundef nonnull @.str) #12
  unreachable

76:                                               ; preds = %_ZL9callTMresP9lua_StateP10lua_TValuePKS1_S4_S4_.exit, %.thread
  ret void
}